Certificate:
    Data:
        Version: 3 (0x2)
        Serial Number: 227 (0xe3)
    Signature Algorithm: sha1WithRSAEncryption
        Issuer: C=CN, ST=BJ, L=Beijing, O=Ainemo, CN=Ainemo CA/emailAddress=mail@host.domain
        Validity
            Not Before: Apr 15 01:37:49 2019 GMT
            Not After : Apr 12 01:37:49 2029 GMT
        Subject: C=CN, ST=BJ, L=Beijing, O=Ainemo, CN=yangxu-comp/emailAddress=mail@host.domain
        Subject Public Key Info:
            Public Key Algorithm: rsaEncryption
                Public-Key: (1024 bit)
                Modulus:
                    00:c0:84:e1:c8:80:13:6f:13:fc:bc:ce:46:99:50:
                    ab:22:61:4d:ce:5b:c1:a5:1a:ee:c1:aa:fd:b9:5d:
                    16:2c:4c:ee:c2:16:11:2a:e8:58:f9:52:bc:e3:8e:
                    5e:f2:2b:29:cd:fc:88:62:d1:97:65:1f:79:b8:51:
                    f0:c3:2d:47:b4:10:ad:8d:88:ca:93:22:84:c2:ef:
                    82:39:36:9c:97:c0:74:64:f3:75:c6:a4:f4:4f:d5:
                    3c:6a:35:ab:1e:0d:4a:6b:68:10:44:fa:cc:b8:20:
                    91:72:65:da:d3:fd:3e:ad:5f:01:06:de:7c:98:c5:
                    31:30:30:e7:c8:7e:a0:bf:d3
                Exponent: 65537 (0x10001)
        X509v3 extensions:
            X509v3 Basic Constraints: 
                CA:FALSE
            Netscape Comment: 
                Easy-RSA Generated Certificate
            X509v3 Subject Key Identifier: 
                D4:87:A0:13:9F:6D:97:7B:53:D4:A0:7B:86:4A:ED:2F:3D:49:16:4C
            X509v3 Authority Key Identifier: 
                keyid:28:13:D6:7C:48:F6:0F:65:A5:50:9A:70:78:40:85:33:61:08:8F:B9
                DirName:/C=CN/ST=BJ/L=Beijing/O=Ainemo/CN=Ainemo CA/emailAddress=mail@host.domain
                serial:F7:9A:9E:D2:BC:8E:E1:1D

            X509v3 Extended Key Usage: 
                TLS Web Client Authentication
            X509v3 Key Usage: 
                Digital Signature
    Signature Algorithm: sha1WithRSAEncryption
         9a:8e:2b:a8:97:97:5d:6e:d3:32:90:68:69:d9:6f:a9:25:65:
         e0:cb:c2:46:20:6b:d5:1e:ff:0f:e9:b2:07:d7:a8:f2:87:02:
         7d:9a:d9:7f:d6:3c:3a:bb:82:f2:0d:1b:01:1d:c3:7d:33:95:
         47:1d:5e:d0:04:b4:d9:97:c5:46:8f:a1:74:eb:40:dc:51:e6:
         51:34:32:9d:49:37:d0:75:3c:d9:77:cd:25:f2:d5:c5:c7:79:
         b3:7b:75:85:eb:c3:be:a0:d6:60:45:3d:d9:1f:46:c4:21:05:
         29:78:2b:cf:9f:5e:1a:3f:c0:b3:3a:a0:a4:52:6d:a3:2a:d2:
         4d:65
-----BEGIN CERTIFICATE-----
MIIDhTCCAu6gAwIBAgICAOMwDQYJKoZIhvcNAQEFBQAwcjELMAkGA1UEBhMCQ04x
CzAJBgNVBAgTAkJKMRAwDgYDVQQHEwdCZWlqaW5nMQ8wDQYDVQQKEwZBaW5lbW8x
EjAQBgNVBAMTCUFpbmVtbyBDQTEfMB0GCSqGSIb3DQEJARYQbWFpbEBob3N0LmRv
bWFpbjAeFw0xOTA0MTUwMTM3NDlaFw0yOTA0MTIwMTM3NDlaMHQxCzAJBgNVBAYT
AkNOMQswCQYDVQQIEwJCSjEQMA4GA1UEBxMHQmVpamluZzEPMA0GA1UEChMGQWlu
ZW1vMRQwEgYDVQQDEwt5YW5neHUtY29tcDEfMB0GCSqGSIb3DQEJARYQbWFpbEBo
b3N0LmRvbWFpbjCBnzANBgkqhkiG9w0BAQEFAAOBjQAwgYkCgYEAwIThyIATbxP8
vM5GmVCrImFNzlvBpRruwar9uV0WLEzuwhYRKuhY+VK8445e8ispzfyIYtGXZR95
uFHwwy1HtBCtjYjKkyKEwu+COTacl8B0ZPN1xqT0T9U8ajWrHg1Ka2gQRPrMuCCR
cmXa0/0+rV8BBt58mMUxMDDnyH6gv9MCAwEAAaOCASYwggEiMAkGA1UdEwQCMAAw
LQYJYIZIAYb4QgENBCAWHkVhc3ktUlNBIEdlbmVyYXRlZCBDZXJ0aWZpY2F0ZTAd
BgNVHQ4EFgQU1IegE59tl3tT1KB7hkrtLz1JFkwwgaQGA1UdIwSBnDCBmYAUKBPW
fEj2D2WlUJpweECFM2EIj7mhdqR0MHIxCzAJBgNVBAYTAkNOMQswCQYDVQQIEwJC
SjEQMA4GA1UEBxMHQmVpamluZzEPMA0GA1UEChMGQWluZW1vMRIwEAYDVQQDEwlB
aW5lbW8gQ0ExHzAdBgkqhkiG9w0BCQEWEG1haWxAaG9zdC5kb21haW6CCQD3mp7S
vI7hHTATBgNVHSUEDDAKBggrBgEFBQcDAjALBgNVHQ8EBAMCB4AwDQYJKoZIhvcN
AQEFBQADgYEAmo4rqJeXXW7TMpBoadlvqSVl4MvCRiBr1R7/D+myB9eo8ocCfZrZ
f9Y8OruC8g0bAR3DfTOVRx1e0AS02ZfFRo+hdOtA3FHmUTQynUk30HU82XfNJfLV
xcd5s3t1hevDvqDWYEU92R9GxCEFKXgrz59eGj/AszqgpFJtoyrSTWU=
-----END CERTIFICATE-----
